target datalayout = "e-m:e-p270:32:32-p271:32:32-p272:64:64-i64:64-i128:128-f80:128-n8:16:32:64-S128"
target triple = "x86_64-unknown-linux-gnu"

%struct.BlockDriverState = type { i32, i8, i8, i8, i8, i8, ptr, ptr, ptr, %struct.anon, i8, [4096 x i8], [4096 x i8], [4096 x i8], [16 x i8], ptr, [4096 x i8], %struct.BlockLimits, i32, i32, i32, i32, [32 x i8], %union.anon, %union.anon.0, %union.anon.1, i32, [16 x %struct.anon.2], ptr, %struct.anon.3, ptr, ptr, %struct.anon.4, ptr, ptr, i32, ptr, i64, i64, %struct.QemuMutex, %struct.anon.5, %struct.Stat64, i32, i32, i32, i32, i32, i32, %struct.QemuMutex, %struct.anon.6, %struct.CoQueue, i8, i32, i8, %struct.CoMutex, ptr, ptr }
%struct.anon = type { ptr }
%struct.BlockLimits = type { i32, i64, i32, i64, i32, i32, i32, i64, i32, i64, i64, i32, i8, i32, i32, i32, i32, i32, i32, i32 }
%union.anon = type { %struct.QTailQLink }
%struct.QTailQLink = type { ptr, ptr }
%union.anon.0 = type { %struct.QTailQLink }
%union.anon.1 = type { %struct.QTailQLink }
%struct.anon.2 = type { ptr }
%struct.anon.3 = type { ptr }
%struct.anon.4 = type { ptr }
%struct.anon.5 = type { ptr }
%struct.Stat64 = type { i64 }
%struct.QemuMutex = type { %union.pthread_mutex_t, i8 }
%union.pthread_mutex_t = type { %struct.__pthread_mutex_s }
%struct.__pthread_mutex_s = type { i32, i32, i32, i32, i32, i16, i16, %struct.__pthread_internal_list }
%struct.__pthread_internal_list = type { ptr, ptr }
%struct.anon.6 = type { ptr }
%struct.CoQueue = type { %struct.anon.7 }
%struct.anon.7 = type { ptr, ptr }
%struct.CoMutex = type { i32, ptr, %struct.anon.8, %struct.anon.8, i32, i32, ptr }
%struct.anon.8 = type { ptr }
%struct.GraphLockableMainloop = type {}
%struct.BlockInfoList = type { ptr, ptr }
%struct.BlockInfo = type { ptr, ptr, ptr, i8, i8, ptr, i8, i8, i8, i32 }

@.str.42 = private unnamed_addr constant [8 x i8] c"unknown\00", align 1

; Function Attrs: nounwind sspstrong uwtable
define internal void @graph_lockable_auto_unlock_mainloop(ptr noundef %x) #0 {
entry:
  %x.addr = alloca ptr, align 8
  store ptr %x, ptr %x.addr, align 8
  call void @bdrv_graph_rdunlock_main_loop()
  ret void
}

; Function Attrs: nounwind sspstrong uwtable
define internal void @glib_autoptr_clear_GraphLockableMainloop(ptr noundef %_ptr) #0 {
entry:
  %_ptr.addr = alloca ptr, align 8
  store ptr %_ptr, ptr %_ptr.addr, align 8
  %0 = load ptr, ptr %_ptr.addr, align 8
  %tobool = icmp ne ptr %0, null
  br i1 %tobool, label %if.then, label %if.end

if.then:                                          ; preds = %entry
  %1 = load ptr, ptr %_ptr.addr, align 8
  call void @graph_lockable_auto_unlock_mainloop(ptr noundef %1)
  br label %if.end

if.end:                                           ; preds = %if.then, %entry
  ret void
}

; Function Attrs: nounwind sspstrong uwtable
define internal void @glib_autoptr_cleanup_GraphLockableMainloop(ptr noundef %_ptr) #0 {
entry:
  %_ptr.addr = alloca ptr, align 8
  store ptr %_ptr, ptr %_ptr.addr, align 8
  %0 = load ptr, ptr %_ptr.addr, align 8
  %1 = load ptr, ptr %0, align 8
  call void @glib_autoptr_clear_GraphLockableMainloop(ptr noundef %1)
  ret void
}

; Function Attrs: nounwind sspstrong uwtable
define internal void @bdrv_query_info(ptr noundef %blk, ptr noundef %p_info, ptr noundef %errp) #0 {
entry:
  %blk.addr = alloca ptr, align 8
  %p_info.addr = alloca ptr, align 8
  %errp.addr = alloca ptr, align 8
  %info = alloca ptr, align 8
  %bs = alloca ptr, align 8
  %qdev = alloca ptr, align 8
  store ptr %blk, ptr %blk.addr, align 8
  store ptr %p_info, ptr %p_info.addr, align 8
  store ptr %errp, ptr %errp.addr, align 8
  %call = call noalias ptr @g_malloc0(i64 noundef 48) #9
  store ptr %call, ptr %info, align 8
  %0 = load ptr, ptr %blk.addr, align 8
  %call1 = call ptr @blk_bs(ptr noundef %0)
  store ptr %call1, ptr %bs, align 8
  %1 = load ptr, ptr %bs, align 8
  %call2 = call ptr @bdrv_skip_implicit_filters(ptr noundef %1)
  store ptr %call2, ptr %bs, align 8
  %2 = load ptr, ptr %blk.addr, align 8
  %call3 = call ptr @blk_name(ptr noundef %2)
  %call4 = call noalias ptr @g_strdup(ptr noundef %call3)
  %3 = load ptr, ptr %info, align 8
  %device = getelementptr inbounds %struct.BlockInfo, ptr %3, i32 0, i32 0
  store ptr %call4, ptr %device, align 8
  %call5 = call noalias ptr @g_strdup(ptr noundef @.str.42)
  %4 = load ptr, ptr %info, align 8
  %type = getelementptr inbounds %struct.BlockInfo, ptr %4, i32 0, i32 2
  store ptr %call5, ptr %type, align 8
  %5 = load ptr, ptr %blk.addr, align 8
  %call6 = call zeroext i1 @blk_dev_is_medium_locked(ptr noundef %5)
  %6 = load ptr, ptr %info, align 8
  %locked = getelementptr inbounds %struct.BlockInfo, ptr %6, i32 0, i32 4
  %frombool = zext i1 %call6 to i8
  store i8 %frombool, ptr %locked, align 1
  %7 = load ptr, ptr %blk.addr, align 8
  %call7 = call zeroext i1 @blk_dev_has_removable_media(ptr noundef %7)
  %8 = load ptr, ptr %info, align 8
  %removable = getelementptr inbounds %struct.BlockInfo, ptr %8, i32 0, i32 3
  %frombool8 = zext i1 %call7 to i8
  store i8 %frombool8, ptr %removable, align 8
  %9 = load ptr, ptr %blk.addr, align 8
  %call9 = call ptr @blk_get_attached_dev_id(ptr noundef %9)
  store ptr %call9, ptr %qdev, align 8
  %10 = load ptr, ptr %qdev, align 8
  %tobool = icmp ne ptr %10, null
  br i1 %tobool, label %land.lhs.true, label %if.else

land.lhs.true:                                    ; preds = %entry
  %11 = load ptr, ptr %qdev, align 8
  %12 = load i8, ptr %11, align 1
  %conv = sext i8 %12 to i32
  %tobool10 = icmp ne i32 %conv, 0
  br i1 %tobool10, label %if.then, label %if.else

if.then:                                          ; preds = %land.lhs.true
  %13 = load ptr, ptr %qdev, align 8
  %14 = load ptr, ptr %info, align 8
  %qdev11 = getelementptr inbounds %struct.BlockInfo, ptr %14, i32 0, i32 1
  store ptr %13, ptr %qdev11, align 8
  br label %if.end

if.else:                                          ; preds = %land.lhs.true, %entry
  %15 = load ptr, ptr %qdev, align 8
  call void @g_free(ptr noundef %15)
  br label %if.end

if.end:                                           ; preds = %if.else, %if.then
  %16 = load ptr, ptr %blk.addr, align 8
  %call12 = call zeroext i1 @blk_dev_has_tray(ptr noundef %16)
  br i1 %call12, label %if.then13, label %if.end16

if.then13:                                        ; preds = %if.end
  %17 = load ptr, ptr %info, align 8
  %has_tray_open = getelementptr inbounds %struct.BlockInfo, ptr %17, i32 0, i32 6
  store i8 1, ptr %has_tray_open, align 8
  %18 = load ptr, ptr %blk.addr, align 8
  %call14 = call zeroext i1 @blk_dev_is_tray_open(ptr noundef %18)
  %19 = load ptr, ptr %info, align 8
  %tray_open = getelementptr inbounds %struct.BlockInfo, ptr %19, i32 0, i32 7
  %frombool15 = zext i1 %call14 to i8
  store i8 %frombool15, ptr %tray_open, align 1
  br label %if.end16

if.end16:                                         ; preds = %if.then13, %if.end
  %20 = load ptr, ptr %blk.addr, align 8
  %call17 = call zeroext i1 @blk_iostatus_is_enabled(ptr noundef %20)
  br i1 %call17, label %if.then18, label %if.end20

if.then18:                                        ; preds = %if.end16
  %21 = load ptr, ptr %info, align 8
  %has_io_status = getelementptr inbounds %struct.BlockInfo, ptr %21, i32 0, i32 8
  store i8 1, ptr %has_io_status, align 2
  %22 = load ptr, ptr %blk.addr, align 8
  %call19 = call i32 @blk_iostatus(ptr noundef %22)
  %23 = load ptr, ptr %info, align 8
  %io_status = getelementptr inbounds %struct.BlockInfo, ptr %23, i32 0, i32 9
  store i32 %call19, ptr %io_status, align 4
  br label %if.end20

if.end20:                                         ; preds = %if.then18, %if.end16
  %24 = load ptr, ptr %bs, align 8
  %tobool21 = icmp ne ptr %24, null
  br i1 %tobool21, label %land.lhs.true22, label %if.end30

land.lhs.true22:                                  ; preds = %if.end20
  %25 = load ptr, ptr %bs, align 8
  %drv = getelementptr inbounds %struct.BlockDriverState, ptr %25, i32 0, i32 6
  %26 = load ptr, ptr %drv, align 8
  %tobool23 = icmp ne ptr %26, null
  br i1 %tobool23, label %if.then24, label %if.end30

if.then24:                                        ; preds = %land.lhs.true22
  %27 = load ptr, ptr %blk.addr, align 8
  %28 = load ptr, ptr %bs, align 8
  %29 = load ptr, ptr %errp.addr, align 8
  %call25 = call ptr @bdrv_block_device_info(ptr noundef %27, ptr noundef %28, i1 noundef zeroext false, ptr noundef %29)
  %30 = load ptr, ptr %info, align 8
  %inserted = getelementptr inbounds %struct.BlockInfo, ptr %30, i32 0, i32 5
  store ptr %call25, ptr %inserted, align 8
  %31 = load ptr, ptr %info, align 8
  %inserted26 = getelementptr inbounds %struct.BlockInfo, ptr %31, i32 0, i32 5
  %32 = load ptr, ptr %inserted26, align 8
  %cmp = icmp eq ptr %32, null
  br i1 %cmp, label %if.then28, label %if.end29

if.then28:                                        ; preds = %if.then24
  br label %err

if.end29:                                         ; preds = %if.then24
  br label %if.end30

if.end30:                                         ; preds = %if.end29, %land.lhs.true22, %if.end20
  %33 = load ptr, ptr %info, align 8
  %34 = load ptr, ptr %p_info.addr, align 8
  store ptr %33, ptr %34, align 8
  br label %return

err:                                              ; preds = %if.then28
  %35 = load ptr, ptr %info, align 8
  call void @qapi_free_BlockInfo(ptr noundef %35)
  br label %return

return:                                           ; preds = %err, %if.end30
  ret void
}

; Function Attrs: nounwind sspstrong uwtable
define internal ptr @graph_lockable_auto_lock_mainloop(ptr noundef %x) #0 {
entry:
  %x.addr = alloca ptr, align 8
  store ptr %x, ptr %x.addr, align 8
  call void @bdrv_graph_rdlock_main_loop()
  %0 = load ptr, ptr %x.addr, align 8
  ret ptr %0
}

; Function Attrs: nounwind sspstrong uwtable
define dso_local ptr @qmp_query_block(ptr noundef %errp) #0 {
entry:
  %retval = alloca ptr, align 8
  %errp.addr = alloca ptr, align 8
  %head = alloca ptr, align 8
  %p_next = alloca ptr, align 8
  %blk = alloca ptr, align 8
  %local_err = alloca ptr, align 8
  %graph_lockable_auto4 = alloca ptr, align 8
  %.compoundliteral = alloca %struct.GraphLockableMainloop, align 1
  %info = alloca ptr, align 8
  %cleanup.dest.slot = alloca i32, align 4
  store ptr %errp, ptr %errp.addr, align 8
  store ptr null, ptr %head, align 8
  store ptr %head, ptr %p_next, align 8
  store ptr null, ptr %local_err, align 8
  %call = call ptr @graph_lockable_auto_lock_mainloop(ptr noundef %.compoundliteral)
  store ptr %call, ptr %graph_lockable_auto4, align 8
  %call1 = call ptr @blk_all_next(ptr noundef null)
  store ptr %call1, ptr %blk, align 8
  br label %for.cond

for.cond:                                         ; preds = %for.inc, %entry
  %0 = load ptr, ptr %blk, align 8
  %tobool = icmp ne ptr %0, null
  br i1 %tobool, label %for.body, label %for.end

for.body:                                         ; preds = %for.cond
  %1 = load ptr, ptr %blk, align 8
  %call2 = call ptr @blk_name(ptr noundef %1)
  %2 = load i8, ptr %call2, align 1
  %tobool3 = icmp ne i8 %2, 0
  br i1 %tobool3, label %if.end, label %land.lhs.true

land.lhs.true:                                    ; preds = %for.body
  %3 = load ptr, ptr %blk, align 8
  %call4 = call ptr @blk_get_attached_dev(ptr noundef %3)
  %tobool5 = icmp ne ptr %call4, null
  br i1 %tobool5, label %if.end, label %if.then

if.then:                                          ; preds = %land.lhs.true
  br label %for.inc

if.end:                                           ; preds = %land.lhs.true, %for.body
  %call6 = call noalias ptr @g_malloc0(i64 noundef 16) #9
  store ptr %call6, ptr %info, align 8
  %4 = load ptr, ptr %blk, align 8
  %5 = load ptr, ptr %info, align 8
  %value = getelementptr inbounds %struct.BlockInfoList, ptr %5, i32 0, i32 1
  call void @bdrv_query_info(ptr noundef %4, ptr noundef %value, ptr noundef %local_err)
  %6 = load ptr, ptr %local_err, align 8
  %tobool7 = icmp ne ptr %6, null
  br i1 %tobool7, label %if.then8, label %if.end9

if.then8:                                         ; preds = %if.end
  %7 = load ptr, ptr %errp.addr, align 8
  %8 = load ptr, ptr %local_err, align 8
  call void @error_propagate(ptr noundef %7, ptr noundef %8)
  %9 = load ptr, ptr %info, align 8
  call void @g_free(ptr noundef %9)
  %10 = load ptr, ptr %head, align 8
  call void @qapi_free_BlockInfoList(ptr noundef %10)
  store ptr null, ptr %retval, align 8
  store i32 1, ptr %cleanup.dest.slot, align 4
  br label %cleanup

if.end9:                                          ; preds = %if.end
  %11 = load ptr, ptr %info, align 8
  %12 = load ptr, ptr %p_next, align 8
  store ptr %11, ptr %12, align 8
  %13 = load ptr, ptr %info, align 8
  %next = getelementptr inbounds %struct.BlockInfoList, ptr %13, i32 0, i32 0
  store ptr %next, ptr %p_next, align 8
  br label %for.inc

for.inc:                                          ; preds = %if.end9, %if.then
  %14 = load ptr, ptr %blk, align 8
  %call10 = call ptr @blk_all_next(ptr noundef %14)
  store ptr %call10, ptr %blk, align 8
  br label %for.cond, !llvm.loop !9

for.end:                                          ; preds = %for.cond
  %15 = load ptr, ptr %head, align 8
  store ptr %15, ptr %retval, align 8
  store i32 1, ptr %cleanup.dest.slot, align 4
  br label %cleanup

cleanup:                                          ; preds = %for.end, %if.then8
  call void @glib_autoptr_cleanup_GraphLockableMainloop(ptr noundef %graph_lockable_auto4)
  %16 = load ptr, ptr %retval, align 8
  ret ptr %16
}