; Function Attrs: nounwind sspstrong uwtable
define dso_local ptr @qmp_query_block(ptr noundef %errp) local_unnamed_addr #0 {
entry:
  %head = alloca ptr, align 8
  %local_err = alloca ptr, align 8
  store ptr null, ptr %head, align 8
  store ptr null, ptr %local_err, align 8
  tail call void @bdrv_graph_rdlock_main_loop() #10
  %call1 = tail call ptr @blk_all_next(ptr noundef null) #10
  %tobool.not9 = icmp eq ptr %call1, null
  br i1 %tobool.not9, label %glib_autoptr_cleanup_GraphLockableMainloop.exit, label %for.body

for.body:                                         ; preds = %entry, %for.inc
  %blk.011 = phi ptr [ %call10, %for.inc ], [ %call1, %entry ]
  %p_next.010 = phi ptr [ %p_next.1, %for.inc ], [ %head, %entry ]
  %call2 = call ptr @blk_name(ptr noundef nonnull %blk.011) #10
  %0 = load i8, ptr %call2, align 1
  %tobool3.not = icmp eq i8 %0, 0
  br i1 %tobool3.not, label %land.lhs.true, label %if.end

land.lhs.true:                                    ; preds = %for.body
  %call4 = call ptr @blk_get_attached_dev(ptr noundef nonnull %blk.011) #10
  %tobool5.not = icmp eq ptr %call4, null
  br i1 %tobool5.not, label %for.inc, label %if.end

if.end:                                           ; preds = %land.lhs.true, %for.body
  %call6 = call noalias dereferenceable_or_null(16) ptr @g_malloc0(i64 noundef 16) #11
  %value = getelementptr inbounds nuw i8, ptr %call6, i64 8
  %call.i = call noalias dereferenceable_or_null(48) ptr @g_malloc0(i64 noundef 48) #11
  %call1.i = call ptr @blk_bs(ptr noundef nonnull %blk.011) #10
  %call2.i = call ptr @bdrv_skip_implicit_filters(ptr noundef %call1.i) #10
  %call3.i = call ptr @blk_name(ptr noundef nonnull %blk.011) #10
  %call4.i = call noalias ptr @g_strdup(ptr noundef %call3.i) #10
  store ptr %call4.i, ptr %call.i, align 8
  %call5.i = call noalias ptr @g_strdup(ptr noundef nonnull @.str.42) #10
  %type.i = getelementptr inbounds nuw i8, ptr %call.i, i64 16
  store ptr %call5.i, ptr %type.i, align 8
  %call6.i = call zeroext i1 @blk_dev_is_medium_locked(ptr noundef nonnull %blk.011) #10
  %locked.i = getelementptr inbounds nuw i8, ptr %call.i, i64 25
  %frombool.i = zext i1 %call6.i to i8
  store i8 %frombool.i, ptr %locked.i, align 1
  %call7.i = call zeroext i1 @blk_dev_has_removable_media(ptr noundef nonnull %blk.011) #10
  %removable.i = getelementptr inbounds nuw i8, ptr %call.i, i64 24
  %frombool8.i = zext i1 %call7.i to i8
  store i8 %frombool8.i, ptr %removable.i, align 8
  %call9.i = call ptr @blk_get_attached_dev_id(ptr noundef nonnull %blk.011) #10
  %tobool.not.i = icmp eq ptr %call9.i, null
  br i1 %tobool.not.i, label %if.else.i, label %land.lhs.true.i

land.lhs.true.i:                                  ; preds = %if.end
  %1 = load i8, ptr %call9.i, align 1
  %tobool10.not.i = icmp eq i8 %1, 0
  br i1 %tobool10.not.i, label %if.else.i, label %if.then.i

if.then.i:                                        ; preds = %land.lhs.true.i
  %qdev11.i = getelementptr inbounds nuw i8, ptr %call.i, i64 8
  store ptr %call9.i, ptr %qdev11.i, align 8
  br label %if.end.i

if.else.i:                                        ; preds = %land.lhs.true.i, %if.end
  call void @g_free(ptr noundef %call9.i) #10
  br label %if.end.i

if.end.i:                                         ; preds = %if.else.i, %if.then.i
  %call12.i = call zeroext i1 @blk_dev_has_tray(ptr noundef nonnull %blk.011) #10
  br i1 %call12.i, label %if.then13.i, label %if.end16.i

if.then13.i:                                      ; preds = %if.end.i
  %has_tray_open.i = getelementptr inbounds nuw i8, ptr %call.i, i64 40
  store i8 1, ptr %has_tray_open.i, align 8
  %call14.i = call zeroext i1 @blk_dev_is_tray_open(ptr noundef nonnull %blk.011) #10
  %tray_open.i = getelementptr inbounds nuw i8, ptr %call.i, i64 41
  %frombool15.i = zext i1 %call14.i to i8
  store i8 %frombool15.i, ptr %tray_open.i, align 1
  br label %if.end16.i

if.end16.i:                                       ; preds = %if.then13.i, %if.end.i
  %call17.i = call zeroext i1 @blk_iostatus_is_enabled(ptr noundef nonnull %blk.011) #10
  br i1 %call17.i, label %if.then18.i, label %if.end20.i

if.then18.i:                                      ; preds = %if.end16.i
  %has_io_status.i = getelementptr inbounds nuw i8, ptr %call.i, i64 42
  store i8 1, ptr %has_io_status.i, align 2
  %call19.i = call i32 @blk_iostatus(ptr noundef nonnull %blk.011) #10
  %io_status.i = getelementptr inbounds nuw i8, ptr %call.i, i64 44
  store i32 %call19.i, ptr %io_status.i, align 4
  br label %if.end20.i

if.end20.i:                                       ; preds = %if.then18.i, %if.end16.i
  %tobool21.not.i = icmp eq ptr %call2.i, null
  br i1 %tobool21.not.i, label %if.end30.i, label %land.lhs.true22.i

land.lhs.true22.i:                                ; preds = %if.end20.i
  %drv.i = getelementptr inbounds nuw i8, ptr %call2.i, i64 16
  %2 = load ptr, ptr %drv.i, align 8
  %tobool23.not.i = icmp eq ptr %2, null
  br i1 %tobool23.not.i, label %if.end30.i, label %if.then24.i

if.then24.i:                                      ; preds = %land.lhs.true22.i
  %call25.i = call ptr @bdrv_block_device_info(ptr noundef nonnull %blk.011, ptr noundef nonnull %call2.i, i1 noundef zeroext false, ptr noundef nonnull %local_err)
  %inserted.i = getelementptr inbounds nuw i8, ptr %call.i, i64 32
  store ptr %call25.i, ptr %inserted.i, align 8
  %cmp.i = icmp eq ptr %call25.i, null
  br i1 %cmp.i, label %err.i, label %if.end30.i

if.end30.i:                                       ; preds = %if.then24.i, %land.lhs.true22.i, %if.end20.i
  store ptr %call.i, ptr %value, align 8
  br label %bdrv_query_info.exit

err.i:                                            ; preds = %if.then24.i
  call void @qapi_free_BlockInfo(ptr noundef nonnull %call.i) #10
  br label %bdrv_query_info.exit

bdrv_query_info.exit:                             ; preds = %if.end30.i, %err.i
  %3 = load ptr, ptr %local_err, align 8
  %tobool7.not = icmp eq ptr %3, null
  br i1 %tobool7.not, label %if.end9, label %if.then8

if.then8:                                         ; preds = %bdrv_query_info.exit
  call void @error_propagate(ptr noundef %errp, ptr noundef nonnull %3) #10
  call void @g_free(ptr noundef %call6) #10
  %head.0.head.0.head.0.head.0. = load ptr, ptr %head, align 8
  call void @qapi_free_BlockInfoList(ptr noundef %head.0.head.0.head.0.head.0.) #10
  br label %glib_autoptr_cleanup_GraphLockableMainloop.exit

if.end9:                                          ; preds = %bdrv_query_info.exit
  store ptr %call6, ptr %p_next.010, align 8
  br label %for.inc

for.inc:                                          ; preds = %land.lhs.true, %if.end9
  %p_next.1 = phi ptr [ %call6, %if.end9 ], [ %p_next.010, %land.lhs.true ]
  %call10 = call ptr @blk_all_next(ptr noundef nonnull %blk.011) #10
  %tobool.not = icmp eq ptr %call10, null
  br i1 %tobool.not, label %for.end.loopexit, label %for.body, !llvm.loop !9

for.end.loopexit:                                 ; preds = %for.inc
  %head.0.head.0.head.0.head.0.8.pre = load ptr, ptr %head, align 8
  br label %glib_autoptr_cleanup_GraphLockableMainloop.exit

glib_autoptr_cleanup_GraphLockableMainloop.exit:  ; preds = %entry, %for.end.loopexit, %if.then8
  %retval.0 = phi ptr [ null, %if.then8 ], [ %head.0.head.0.head.0.head.0.8.pre, %for.end.loopexit ], [ null, %entry ]
  call void @bdrv_graph_rdunlock_main_loop() #10
  ret ptr %retval.0
}